; ModuleID = '10/1477.c'
source_filename = "10/1477.c"
target datalayout = "e-m:e-p270:32:32-p271:32:32-p272:64:64-i64:64-f80:128-n8:16:32:64-S128"
target triple = "x86_64-pc-linux-gnu"

@.str = private unnamed_addr constant [3 x i8] c"%d\00", align 1

; Function Attrs: noinline nounwind uwtable
define dso_local i32 @main() #0 {
  %1 = alloca i32, align 4
  %2 = alloca i32, align 4
  %3 = alloca i32, align 4
  %4 = alloca i32, align 4
  %5 = alloca [25 x i32], align 16
  %6 = alloca [25 x i32], align 16
  %7 = alloca i32, align 4
  store i32 0, i32* %1, align 4
  store i32 0, i32* %7, align 4
  %8 = call i32 (i8*, ...) @__isoc99_scanf(i8* getelementptr inbounds ([3 x i8], [3 x i8]* @.str, i64 0, i64 0), i32* %4)
  store i32 0, i32* %2, align 4
  br label %9

9:                                                ; preds = %18, %0
  %10 = load i32, i32* %2, align 4
  %11 = load i32, i32* %4, align 4
  %12 = icmp slt i32 %10, %11
  br i1 %12, label %13, label %21

13:                                               ; preds = %9
  %14 = load i32, i32* %2, align 4
  %15 = sext i32 %14 to i64
  %16 = getelementptr inbounds [25 x i32], [25 x i32]* %5, i64 0, i64 %15
  %17 = call i32 (i8*, ...) @__isoc99_scanf(i8* getelementptr inbounds ([3 x i8], [3 x i8]* @.str, i64 0, i64 0), i32* %16)
  br label %18

18:                                               ; preds = %13
  %19 = load i32, i32* %2, align 4
  %20 = add nsw i32 %19, 1
  store i32 %20, i32* %2, align 4
  br label %9

21:                                               ; preds = %9
  store i32 0, i32* %2, align 4
  br label %22

22:                                               ; preds = %75, %21
  %23 = load i32, i32* %2, align 4
  %24 = load i32, i32* %4, align 4
  %25 = icmp slt i32 %23, %24
  br i1 %25, label %26, label %78

26:                                               ; preds = %22
  store i32 0, i32* %3, align 4
  store i32 0, i32* %7, align 4
  br label %27

27:                                               ; preds = %55, %26
  %28 = load i32, i32* %3, align 4
  %29 = load i32, i32* %2, align 4
  %30 = icmp slt i32 %28, %29
  br i1 %30, label %31, label %58

31:                                               ; preds = %27
  %32 = load i32, i32* %3, align 4
  %33 = sext i32 %32 to i64
  %34 = getelementptr inbounds [25 x i32], [25 x i32]* %5, i64 0, i64 %33
  %35 = load i32, i32* %34, align 4
  %36 = load i32, i32* %2, align 4
  %37 = sext i32 %36 to i64
  %38 = getelementptr inbounds [25 x i32], [25 x i32]* %5, i64 0, i64 %37
  %39 = load i32, i32* %38, align 4
  %40 = icmp sge i32 %35, %39
  br i1 %40, label %41, label %54

41:                                               ; preds = %31
  %42 = load i32, i32* %3, align 4
  %43 = sext i32 %42 to i64
  %44 = getelementptr inbounds [25 x i32], [25 x i32]* %6, i64 0, i64 %43
  %45 = load i32, i32* %44, align 4
  %46 = load i32, i32* %7, align 4
  %47 = icmp sgt i32 %45, %46
  br i1 %47, label %48, label %53

48:                                               ; preds = %41
  %49 = load i32, i32* %3, align 4
  %50 = sext i32 %49 to i64
  %51 = getelementptr inbounds [25 x i32], [25 x i32]* %6, i64 0, i64 %50
  %52 = load i32, i32* %51, align 4
  store i32 %52, i32* %7, align 4
  br label %53

53:                                               ; preds = %48, %41
  br label %54

54:                                               ; preds = %53, %31
  br label %55

55:                                               ; preds = %54
  %56 = load i32, i32* %3, align 4
  %57 = add nsw i32 %56, 1
  store i32 %57, i32* %3, align 4
  br label %27

58:                                               ; preds = %27
  %59 = load i32, i32* %7, align 4
  %60 = icmp eq i32 %59, 0
  br i1 %60, label %61, label %65

61:                                               ; preds = %58
  %62 = load i32, i32* %2, align 4
  %63 = sext i32 %62 to i64
  %64 = getelementptr inbounds [25 x i32], [25 x i32]* %6, i64 0, i64 %63
  store i32 1, i32* %64, align 4
  br label %65

65:                                               ; preds = %61, %58
  %66 = load i32, i32* %7, align 4
  %67 = icmp sgt i32 %66, 0
  br i1 %67, label %68, label %74

68:                                               ; preds = %65
  %69 = load i32, i32* %7, align 4
  %70 = add nsw i32 %69, 1
  %71 = load i32, i32* %2, align 4
  %72 = sext i32 %71 to i64
  %73 = getelementptr inbounds [25 x i32], [25 x i32]* %6, i64 0, i64 %72
  store i32 %70, i32* %73, align 4
  br label %74

74:                                               ; preds = %68, %65
  br label %75

75:                                               ; preds = %74
  %76 = load i32, i32* %2, align 4
  %77 = add nsw i32 %76, 1
  store i32 %77, i32* %2, align 4
  br label %22

78:                                               ; preds = %22
  store i32 0, i32* %2, align 4
  store i32 0, i32* %7, align 4
  br label %79

79:                                               ; preds = %96, %78
  %80 = load i32, i32* %2, align 4
  %81 = load i32, i32* %4, align 4
  %82 = icmp slt i32 %80, %81
  br i1 %82, label %83, label %99

83:                                               ; preds = %79
  %84 = load i32, i32* %2, align 4
  %85 = sext i32 %84 to i64
  %86 = getelementptr inbounds [25 x i32], [25 x i32]* %6, i64 0, i64 %85
  %87 = load i32, i32* %86, align 4
  %88 = load i32, i32* %7, align 4
  %89 = icmp sgt i32 %87, %88
  br i1 %89, label %90, label %95

90:                                               ; preds = %83
  %91 = load i32, i32* %2, align 4
  %92 = sext i32 %91 to i64
  %93 = getelementptr inbounds [25 x i32], [25 x i32]* %6, i64 0, i64 %92
  %94 = load i32, i32* %93, align 4
  store i32 %94, i32* %7, align 4
  br label %95

95:                                               ; preds = %90, %83
  br label %96

96:                                               ; preds = %95
  %97 = load i32, i32* %2, align 4
  %98 = add nsw i32 %97, 1
  store i32 %98, i32* %2, align 4
  br label %79

99:                                               ; preds = %79
  %100 = load i32, i32* %7, align 4
  %101 = call i32 (i8*, ...) @printf(i8* getelementptr inbounds ([3 x i8], [3 x i8]* @.str, i64 0, i64 0), i32 %100)
  %102 = load i32, i32* %1, align 4
  ret i32 %102
}

declare dso_local i32 @__isoc99_scanf(i8*, ...) #1

declare dso_local i32 @printf(i8*, ...) #1


!llvm.module.flags = !{!0}
!llvm.ident = !{!1}

!0 = !{i32 1, !"wchar_size", i32 4}
!1 = !{!"clang version 10.0.0-4ubuntu1 "}
